target datalayout = "e-m:e-p270:32:32-p271:32:32-p272:64:64-i64:64-i128:128-f80:128-n8:16:32:64-S128"
target triple = "x86_64-pc-linux-gnu"

%struct.Aes = type { [60 x i32], i32, i32, [8 x i8], [4 x i32], [4 x i32], [2 x i32], i32, [4 x i8], %struct.Gcm, ptr, [8 x i8] }
%struct.Gcm = type { [16 x i8], [32 x [16 x i8]] }

; Function Attrs: nounwind uwtable
define i32 @wc_AesSetIV(ptr noundef %0, ptr noundef %1) #0 {
  %3 = alloca i32, align 4
  %4 = alloca ptr, align 8
  %5 = alloca ptr, align 8
  store ptr %0, ptr %4, align 8, !tbaa !3
  store ptr %1, ptr %5, align 8, !tbaa !8
  %6 = load ptr, ptr %4, align 8, !tbaa !3
  %7 = icmp eq ptr %6, null
  br i1 %7, label %8, label %9

8:                                                ; preds = %2
  store i32 -173, ptr %3, align 4
  br label %22

9:                                                ; preds = %2
  %10 = load ptr, ptr %5, align 8, !tbaa !8
  %11 = icmp ne ptr %10, null
  br i1 %11, label %12, label %17

12:                                               ; preds = %9
  %13 = load ptr, ptr %4, align 8, !tbaa !3
  %14 = getelementptr inbounds nuw %struct.Aes, ptr %13, i32 0, i32 4
  %15 = getelementptr inbounds [4 x i32], ptr %14, i64 0, i64 0
  %16 = load ptr, ptr %5, align 8, !tbaa !8
  call void @llvm.memcpy.p0.p0.i64(ptr align 16 %15, ptr align 1 %16, i64 16, i1 false)
  br label %21

17:                                               ; preds = %9
  %18 = load ptr, ptr %4, align 8, !tbaa !3
  %19 = getelementptr inbounds nuw %struct.Aes, ptr %18, i32 0, i32 4
  %20 = getelementptr inbounds [4 x i32], ptr %19, i64 0, i64 0
  call void @llvm.memset.p0.i64(ptr align 16 %20, i8 0, i64 16, i1 false)
  br label %21

21:                                               ; preds = %17, %12
  store i32 0, ptr %3, align 4
  br label %22

22:                                               ; preds = %21, %8
  %23 = load i32, ptr %3, align 4
  ret i32 %23
}