; Function Attrs: mustprogress nofree norecurse nosync nounwind willreturn memory(argmem: readwrite) uwtable
define range(i32 -173, 1) i32 @wc_AesSetIV(ptr noundef writeonly captures(address_is_null) %0, ptr noundef readonly captures(address_is_null) %1) local_unnamed_addr #1 {
  %3 = icmp eq ptr %0, null
  br i1 %3, label %8, label %4

4:                                                ; preds = %2
  %.not = icmp eq ptr %1, null
  %5 = getelementptr inbounds nuw i8, ptr %0, i64 256
  br i1 %.not, label %7, label %6

6:                                                ; preds = %4
  tail call void @llvm.memcpy.p0.p0.i64(ptr noundef nonnull align 16 dereferenceable(16) %5, ptr noundef nonnull align 1 dereferenceable(16) %1, i64 16, i1 false)
  br label %8

7:                                                ; preds = %4
  tail call void @llvm.memset.p0.i64(ptr noundef nonnull align 16 dereferenceable(16) %5, i8 0, i64 16, i1 false)
  br label %8

8:                                                ; preds = %6, %7, %2
  %.0 = phi i32 [ -173, %2 ], [ 0, %7 ], [ 0, %6 ]
  ret i32 %.0
}